; Function Attrs: mustprogress uwtable
define void @_ZN3gmx19AnalysisDataStorage16startDataStorageEPNS_20AbstractAnalysisDataEPNS_25AnalysisDataModuleManagerE(ptr nocapture noundef nonnull readonly align 8 dereferenceable(8) %0, ptr noundef %1, ptr noundef nonnull %2) local_unnamed_addr #1 align 2 {
  tail call void @_ZN3gmx25AnalysisDataModuleManager15notifyDataStartEPNS_20AbstractAnalysisDataE(ptr noundef nonnull align 8 dereferenceable(8) %2, ptr noundef %1)
  %4 = load ptr, ptr %0, align 8
  store ptr %1, ptr %4, align 8
  %5 = load ptr, ptr %0, align 8
  %6 = getelementptr inbounds i8, ptr %5, i64 8
  store ptr %2, ptr %6, align 8
  %7 = load ptr, ptr %0, align 8
  %8 = getelementptr inbounds i8, ptr %7, i64 16
  %9 = load i32, ptr %8, align 8
  %10 = icmp eq i32 %9, 2147483647
  br i1 %10, label %14, label %11

11:                                               ; preds = %3
  %12 = add nsw i32 %9, 2
  %13 = sext i32 %12 to i64
  tail call void @_ZN3gmx8internal23AnalysisDataStorageImpl12extendBufferEm(ptr noundef nonnull align 8 dereferenceable(92) %7, i64 noundef %13)
  br label %14

14:                                               ; preds = %11, %3
  ret void
}